; Function Attrs: nounwind sspstrong uwtable
define dso_local void @tcg_gen_gvec_xori(i32 noundef %0, i32 noundef %1, i32 noundef %2, i64 noundef %3, i32 noundef %4, i32 noundef %5) local_unnamed_addr #2 {
  switch i32 %0, label %16 [
    i32 0, label %7
    i32 1, label %10
    i32 2, label %13
    i32 3, label %dup_const.exit
  ]

7:                                                ; preds = %6
  %8 = and i64 %3, 255
  %9 = mul nuw i64 %8, 72340172838076673
  br label %dup_const.exit

10:                                               ; preds = %6
  %11 = and i64 %3, 65535
  %12 = mul nuw i64 %11, 281479271743489
  br label %dup_const.exit

13:                                               ; preds = %6
  %14 = and i64 %3, 4294967295
  %15 = mul nuw i64 %14, 4294967297
  br label %dup_const.exit

16:                                               ; preds = %6
  tail call void @g_assertion_message_expr(ptr noundef null, ptr noundef nonnull @.str, i32 noundef 398, ptr noundef nonnull @__func__.dup_const, ptr noundef null) #11
  unreachable

dup_const.exit:                                   ; preds = %13, %10, %7, %6
  %17 = phi i64 [ %15, %13 ], [ %12, %10 ], [ %9, %7 ], [ %3, %6 ]
  %18 = tail call ptr @tcg_constant_i64(i64 noundef %17) #10
  tail call void @tcg_gen_gvec_2s(i32 noundef %1, i32 noundef %2, i32 noundef %4, i32 noundef %5, ptr noundef %18, ptr noundef nonnull @gop_xors)
  ret void
}